target datalayout = "e-m:e-p270:32:32-p271:32:32-p272:64:64-i64:64-i128:128-f80:128-n8:16:32:64-S128"
target triple = "x86_64-pc-linux-gnu"

%struct.jv = type { i8, i8, i16, i32, %union.anon }
%union.anon = type { ptr }

@.str.154 = private unnamed_addr constant [16 x i8] c"number required\00", align 1
@.str.155 = private unnamed_addr constant [11 x i8] c"%s (%s) %s\00", align 1

; Function Attrs: nounwind uwtable
define internal { i64, ptr } @type_error(i64 %0, ptr %1, ptr noundef %2) #0 {
  %4 = alloca %struct.jv, align 8
  %5 = alloca %struct.jv, align 8
  %6 = alloca ptr, align 8
  %7 = alloca [15 x i8], align 1
  %8 = alloca ptr, align 8
  %9 = alloca %struct.jv, align 8
  %10 = getelementptr inbounds nuw { i64, ptr }, ptr %5, i32 0, i32 0
  store i64 %0, ptr %10, align 8
  %11 = getelementptr inbounds nuw { i64, ptr }, ptr %5, i32 0, i32 1
  store ptr %1, ptr %11, align 8
  store ptr %2, ptr %6, align 8, !tbaa !12
  call void @llvm.lifetime.start.p0(i64 15, ptr %7) #10
  call void @llvm.lifetime.start.p0(i64 8, ptr %8) #10
  %12 = getelementptr inbounds nuw { i64, ptr }, ptr %5, i32 0, i32 0
  %13 = load i64, ptr %12, align 8
  %14 = getelementptr inbounds nuw { i64, ptr }, ptr %5, i32 0, i32 1
  %15 = load ptr, ptr %14, align 8
  %16 = call i32 @jv_get_kind(i64 %13, ptr %15)
  %17 = call ptr @jv_kind_name(i32 noundef %16)
  store ptr %17, ptr %8, align 8, !tbaa !12
  %18 = load ptr, ptr %8, align 8, !tbaa !12
  %19 = getelementptr inbounds [15 x i8], ptr %7, i64 0, i64 0
  %20 = getelementptr inbounds nuw { i64, ptr }, ptr %5, i32 0, i32 0
  %21 = load i64, ptr %20, align 8
  %22 = getelementptr inbounds nuw { i64, ptr }, ptr %5, i32 0, i32 1
  %23 = load ptr, ptr %22, align 8
  %24 = call ptr @jv_dump_string_trunc(i64 %21, ptr %23, ptr noundef %19, i64 noundef 15)
  %25 = load ptr, ptr %6, align 8, !tbaa !12
  %26 = call { i64, ptr } (ptr, ...) @jv_string_fmt(ptr noundef @.str.155, ptr noundef %18, ptr noundef %24, ptr noundef %25)
  %27 = getelementptr inbounds nuw { i64, ptr }, ptr %9, i32 0, i32 0
  %28 = extractvalue { i64, ptr } %26, 0
  store i64 %28, ptr %27, align 8
  %29 = getelementptr inbounds nuw { i64, ptr }, ptr %9, i32 0, i32 1
  %30 = extractvalue { i64, ptr } %26, 1
  store ptr %30, ptr %29, align 8
  %31 = getelementptr inbounds nuw { i64, ptr }, ptr %9, i32 0, i32 0
  %32 = load i64, ptr %31, align 8
  %33 = getelementptr inbounds nuw { i64, ptr }, ptr %9, i32 0, i32 1
  %34 = load ptr, ptr %33, align 8
  %35 = call { i64, ptr } @jv_invalid_with_msg(i64 %32, ptr %34)
  %36 = getelementptr inbounds nuw { i64, ptr }, ptr %4, i32 0, i32 0
  %37 = extractvalue { i64, ptr } %35, 0
  store i64 %37, ptr %36, align 8
  %38 = getelementptr inbounds nuw { i64, ptr }, ptr %4, i32 0, i32 1
  %39 = extractvalue { i64, ptr } %35, 1
  store ptr %39, ptr %38, align 8
  call void @llvm.lifetime.end.p0(i64 8, ptr %8) #10
  call void @llvm.lifetime.end.p0(i64 15, ptr %7) #10
  %40 = load { i64, ptr }, ptr %4, align 8
  ret { i64, ptr } %40
}

; Function Attrs: nounwind uwtable
define internal { i64, ptr } @f_nexttoward(ptr noundef %0, i64 %1, ptr %2, i64 %3, ptr %4, ptr noundef byval(%struct.jv) align 8 %5) #0 {
  %7 = alloca %struct.jv, align 8
  %8 = alloca %struct.jv, align 8
  %9 = alloca %struct.jv, align 8
  %10 = alloca ptr, align 8
  %11 = getelementptr inbounds nuw { i64, ptr }, ptr %8, i32 0, i32 0
  store i64 %1, ptr %11, align 8
  %12 = getelementptr inbounds nuw { i64, ptr }, ptr %8, i32 0, i32 1
  store ptr %2, ptr %12, align 8
  %13 = getelementptr inbounds nuw { i64, ptr }, ptr %9, i32 0, i32 0
  store i64 %3, ptr %13, align 8
  %14 = getelementptr inbounds nuw { i64, ptr }, ptr %9, i32 0, i32 1
  store ptr %4, ptr %14, align 8
  store ptr %0, ptr %10, align 8, !tbaa !25
  %15 = getelementptr inbounds nuw { i64, ptr }, ptr %8, i32 0, i32 0
  %16 = load i64, ptr %15, align 8
  %17 = getelementptr inbounds nuw { i64, ptr }, ptr %8, i32 0, i32 1
  %18 = load ptr, ptr %17, align 8
  call void @jv_free(i64 %16, ptr %18)
  %19 = getelementptr inbounds nuw { i64, ptr }, ptr %9, i32 0, i32 0
  %20 = load i64, ptr %19, align 8
  %21 = getelementptr inbounds nuw { i64, ptr }, ptr %9, i32 0, i32 1
  %22 = load ptr, ptr %21, align 8
  %23 = call i32 @jv_get_kind(i64 %20, ptr %22)
  %24 = icmp ne i32 %23, 4
  br i1 %24, label %25, label %39

25:                                               ; preds = %6
  %26 = getelementptr inbounds nuw { i64, ptr }, ptr %5, i32 0, i32 0
  %27 = load i64, ptr %26, align 8
  %28 = getelementptr inbounds nuw { i64, ptr }, ptr %5, i32 0, i32 1
  %29 = load ptr, ptr %28, align 8
  call void @jv_free(i64 %27, ptr %29)
  %30 = getelementptr inbounds nuw { i64, ptr }, ptr %9, i32 0, i32 0
  %31 = load i64, ptr %30, align 8
  %32 = getelementptr inbounds nuw { i64, ptr }, ptr %9, i32 0, i32 1
  %33 = load ptr, ptr %32, align 8
  %34 = call { i64, ptr } @type_error(i64 %31, ptr %33, ptr noundef @.str.154)
  %35 = getelementptr inbounds nuw { i64, ptr }, ptr %7, i32 0, i32 0
  %36 = extractvalue { i64, ptr } %34, 0
  store i64 %36, ptr %35, align 8
  %37 = getelementptr inbounds nuw { i64, ptr }, ptr %7, i32 0, i32 1
  %38 = extractvalue { i64, ptr } %34, 1
  store ptr %38, ptr %37, align 8
  br label %86

39:                                               ; preds = %6
  %40 = getelementptr inbounds nuw { i64, ptr }, ptr %5, i32 0, i32 0
  %41 = load i64, ptr %40, align 8
  %42 = getelementptr inbounds nuw { i64, ptr }, ptr %5, i32 0, i32 1
  %43 = load ptr, ptr %42, align 8
  %44 = call i32 @jv_get_kind(i64 %41, ptr %43)
  %45 = icmp ne i32 %44, 4
  br i1 %45, label %46, label %60

46:                                               ; preds = %39
  %47 = getelementptr inbounds nuw { i64, ptr }, ptr %9, i32 0, i32 0
  %48 = load i64, ptr %47, align 8
  %49 = getelementptr inbounds nuw { i64, ptr }, ptr %9, i32 0, i32 1
  %50 = load ptr, ptr %49, align 8
  call void @jv_free(i64 %48, ptr %50)
  %51 = getelementptr inbounds nuw { i64, ptr }, ptr %5, i32 0, i32 0
  %52 = load i64, ptr %51, align 8
  %53 = getelementptr inbounds nuw { i64, ptr }, ptr %5, i32 0, i32 1
  %54 = load ptr, ptr %53, align 8
  %55 = call { i64, ptr } @type_error(i64 %52, ptr %54, ptr noundef @.str.154)
  %56 = getelementptr inbounds nuw { i64, ptr }, ptr %7, i32 0, i32 0
  %57 = extractvalue { i64, ptr } %55, 0
  store i64 %57, ptr %56, align 8
  %58 = getelementptr inbounds nuw { i64, ptr }, ptr %7, i32 0, i32 1
  %59 = extractvalue { i64, ptr } %55, 1
  store ptr %59, ptr %58, align 8
  br label %86

60:                                               ; preds = %39
  %61 = getelementptr inbounds nuw { i64, ptr }, ptr %9, i32 0, i32 0
  %62 = load i64, ptr %61, align 8
  %63 = getelementptr inbounds nuw { i64, ptr }, ptr %9, i32 0, i32 1
  %64 = load ptr, ptr %63, align 8
  %65 = call double @jv_number_value(i64 %62, ptr %64)
  %66 = getelementptr inbounds nuw { i64, ptr }, ptr %5, i32 0, i32 0
  %67 = load i64, ptr %66, align 8
  %68 = getelementptr inbounds nuw { i64, ptr }, ptr %5, i32 0, i32 1
  %69 = load ptr, ptr %68, align 8
  %70 = call double @jv_number_value(i64 %67, ptr %69)
  %71 = fpext double %70 to x86_fp80
  %72 = call double @nexttoward(double noundef %65, x86_fp80 noundef %71) #10, !tbaa !10
  %73 = call { i64, ptr } @jv_number(double noundef %72)
  %74 = getelementptr inbounds nuw { i64, ptr }, ptr %7, i32 0, i32 0
  %75 = extractvalue { i64, ptr } %73, 0
  store i64 %75, ptr %74, align 8
  %76 = getelementptr inbounds nuw { i64, ptr }, ptr %7, i32 0, i32 1
  %77 = extractvalue { i64, ptr } %73, 1
  store ptr %77, ptr %76, align 8
  %78 = getelementptr inbounds nuw { i64, ptr }, ptr %9, i32 0, i32 0
  %79 = load i64, ptr %78, align 8
  %80 = getelementptr inbounds nuw { i64, ptr }, ptr %9, i32 0, i32 1
  %81 = load ptr, ptr %80, align 8
  call void @jv_free(i64 %79, ptr %81)
  %82 = getelementptr inbounds nuw { i64, ptr }, ptr %5, i32 0, i32 0
  %83 = load i64, ptr %82, align 8
  %84 = getelementptr inbounds nuw { i64, ptr }, ptr %5, i32 0, i32 1
  %85 = load ptr, ptr %84, align 8
  call void @jv_free(i64 %83, ptr %85)
  br label %86

86:                                               ; preds = %60, %46, %25
  %87 = load { i64, ptr }, ptr %7, align 8
  ret { i64, ptr } %87
}